target datalayout = "e-m:e-p270:32:32-p271:32:32-p272:64:64-i64:64-i128:128-f80:128-n8:16:32:64-S128"
target triple = "x86_64-pc-linux-gnu"

; Function Attrs: mustprogress nounwind uwtable
define void @_Z10do_box_reliPA3_KfPA3_fS3_b(i32 noundef %0, ptr noundef %1, ptr noundef %2, ptr noundef %3, i1 noundef zeroext %4) #0 {
  %6 = alloca i32, align 4
  %7 = alloca ptr, align 8
  %8 = alloca ptr, align 8
  %9 = alloca ptr, align 8
  %10 = alloca i8, align 1
  %11 = alloca i32, align 4
  %12 = alloca i32, align 4
  store i32 %0, ptr %6, align 4
  store ptr %1, ptr %7, align 8
  store ptr %2, ptr %8, align 8
  store ptr %3, ptr %9, align 8
  %13 = zext i1 %4 to i8
  store i8 %13, ptr %10, align 1
  store i32 1, ptr %11, align 4
  br label %14

14:                                               ; preds = %113, %5
  %15 = load i32, ptr %11, align 4
  %16 = icmp sle i32 %15, 2
  br i1 %16, label %17, label %116

17:                                               ; preds = %14
  store i32 0, ptr %12, align 4
  br label %18

18:                                               ; preds = %109, %17
  %19 = load i32, ptr %12, align 4
  %20 = load i32, ptr %6, align 4
  %21 = icmp slt i32 %19, %20
  br i1 %21, label %22, label %112

22:                                               ; preds = %18
  %23 = load ptr, ptr %7, align 8
  %24 = load i32, ptr %11, align 4
  %25 = sext i32 %24 to i64
  %26 = getelementptr inbounds [3 x float], ptr %23, i64 %25
  %27 = load i32, ptr %12, align 4
  %28 = sext i32 %27 to i64
  %29 = getelementptr inbounds [3 x float], ptr %26, i64 0, i64 %28
  %30 = load float, ptr %29, align 4
  %31 = fcmp oeq float %30, 0.000000e+00
  br i1 %31, label %32, label %108

32:                                               ; preds = %22
  %33 = load i32, ptr %11, align 4
  %34 = icmp eq i32 %33, 2
  br i1 %34, label %35, label %62

35:                                               ; preds = %32
  %36 = load i32, ptr %12, align 4
  %37 = icmp eq i32 %36, 0
  br i1 %37, label %38, label %62

38:                                               ; preds = %35
  %39 = load ptr, ptr %7, align 8
  %40 = load i32, ptr %11, align 4
  %41 = sext i32 %40 to i64
  %42 = getelementptr inbounds [3 x float], ptr %39, i64 %41
  %43 = getelementptr inbounds [3 x float], ptr %42, i64 0, i64 1
  %44 = load float, ptr %43, align 4
  %45 = fcmp une float %44, 0.000000e+00
  br i1 %45, label %46, label %62

46:                                               ; preds = %38
  %47 = load ptr, ptr %9, align 8
  %48 = getelementptr inbounds [3 x float], ptr %47, i64 1
  %49 = load i32, ptr %12, align 4
  %50 = sext i32 %49 to i64
  %51 = getelementptr inbounds [3 x float], ptr %48, i64 0, i64 %50
  %52 = load float, ptr %51, align 4
  %53 = fcmp une float %52, 0.000000e+00
  br i1 %53, label %108, label %54

54:                                               ; preds = %46
  %55 = load ptr, ptr %7, align 8
  %56 = getelementptr inbounds [3 x float], ptr %55, i64 1
  %57 = load i32, ptr %12, align 4
  %58 = sext i32 %57 to i64
  %59 = getelementptr inbounds [3 x float], ptr %56, i64 0, i64 %58
  %60 = load float, ptr %59, align 4
  %61 = fcmp une float %60, 0.000000e+00
  br i1 %61, label %108, label %62

62:                                               ; preds = %54, %38, %35, %32
  %63 = load i8, ptr %10, align 1
  %64 = trunc i8 %63 to i1
  br i1 %64, label %65, label %86

65:                                               ; preds = %62
  %66 = load ptr, ptr %9, align 8
  %67 = load i32, ptr %11, align 4
  %68 = sext i32 %67 to i64
  %69 = getelementptr inbounds [3 x float], ptr %66, i64 %68
  %70 = load i32, ptr %12, align 4
  %71 = sext i32 %70 to i64
  %72 = getelementptr inbounds [3 x float], ptr %69, i64 0, i64 %71
  %73 = load float, ptr %72, align 4
  %74 = load ptr, ptr %9, align 8
  %75 = getelementptr inbounds [3 x float], ptr %74, i64 0
  %76 = getelementptr inbounds [3 x float], ptr %75, i64 0, i64 0
  %77 = load float, ptr %76, align 4
  %78 = fdiv float %73, %77
  %79 = load ptr, ptr %8, align 8
  %80 = load i32, ptr %11, align 4
  %81 = sext i32 %80 to i64
  %82 = getelementptr inbounds [3 x float], ptr %79, i64 %81
  %83 = load i32, ptr %12, align 4
  %84 = sext i32 %83 to i64
  %85 = getelementptr inbounds [3 x float], ptr %82, i64 0, i64 %84
  store float %78, ptr %85, align 4
  br label %107

86:                                               ; preds = %62
  %87 = load ptr, ptr %9, align 8
  %88 = getelementptr inbounds [3 x float], ptr %87, i64 0
  %89 = getelementptr inbounds [3 x float], ptr %88, i64 0, i64 0
  %90 = load float, ptr %89, align 4
  %91 = load ptr, ptr %8, align 8
  %92 = load i32, ptr %11, align 4
  %93 = sext i32 %92 to i64
  %94 = getelementptr inbounds [3 x float], ptr %91, i64 %93
  %95 = load i32, ptr %12, align 4
  %96 = sext i32 %95 to i64
  %97 = getelementptr inbounds [3 x float], ptr %94, i64 0, i64 %96
  %98 = load float, ptr %97, align 4
  %99 = fmul float %90, %98
  %100 = load ptr, ptr %9, align 8
  %101 = load i32, ptr %11, align 4
  %102 = sext i32 %101 to i64
  %103 = getelementptr inbounds [3 x float], ptr %100, i64 %102
  %104 = load i32, ptr %12, align 4
  %105 = sext i32 %104 to i64
  %106 = getelementptr inbounds [3 x float], ptr %103, i64 0, i64 %105
  store float %99, ptr %106, align 4
  br label %107

107:                                              ; preds = %86, %65
  br label %108

108:                                              ; preds = %107, %54, %46, %22
  br label %109

109:                                              ; preds = %108
  %110 = load i32, ptr %12, align 4
  %111 = add nsw i32 %110, 1
  store i32 %111, ptr %12, align 4
  br label %18, !llvm.loop !5

112:                                              ; preds = %18
  br label %113

113:                                              ; preds = %112
  %114 = load i32, ptr %11, align 4
  %115 = add nsw i32 %114, 1
  store i32 %115, ptr %11, align 4
  br label %14, !llvm.loop !7

116:                                              ; preds = %14
  ret void
}