; Function Attrs: mustprogress nofree norecurse nosync nounwind memory(argmem: readwrite) uwtable
define void @_Z10do_box_reliPA3_KfPA3_fS3_b(i32 noundef %0, ptr nocapture noundef readonly %1, ptr nocapture noundef %2, ptr nocapture noundef %3, i1 noundef zeroext %4) local_unnamed_addr #0 {
  %6 = icmp sgt i32 %0, 0
  %7 = getelementptr inbounds i8, ptr %3, i64 12
  %8 = getelementptr inbounds i8, ptr %1, i64 12
  br i1 %6, label %.split.us, label %.split42.us

.split.us:                                        ; preds = %5
  %wide.trip.count60 = zext nneg i32 %0 to i64
  %wide.trip.count65 = zext nneg i32 %0 to i64
  br i1 %4, label %.preheader.us.us, label %.preheader.us

.preheader.us.us:                                 ; preds = %.split.us, %._crit_edge.split.us.us.us
  %indvars.iv67 = phi i64 [ %indvars.iv.next68, %._crit_edge.split.us.us.us ], [ 1, %.split.us ]
  %9 = icmp eq i64 %indvars.iv67, 2
  %10 = getelementptr inbounds [3 x float], ptr %1, i64 %indvars.iv67, i64 1
  br i1 %9, label %.lr.ph.split.us.us.us.split, label %.lr.ph.split.us.us.us.split.us

.lr.ph.split.us.us.us.split.us:                   ; preds = %.preheader.us.us, %20
  %indvars.iv57 = phi i64 [ %indvars.iv.next58, %20 ], [ 0, %.preheader.us.us ]
  %11 = getelementptr inbounds [3 x float], ptr %1, i64 %indvars.iv67, i64 %indvars.iv57
  %12 = load float, ptr %11, align 4
  %13 = fcmp oeq float %12, 0.000000e+00
  br i1 %13, label %14, label %20

14:                                               ; preds = %.lr.ph.split.us.us.us.split.us
  %15 = getelementptr inbounds [3 x float], ptr %3, i64 %indvars.iv67, i64 %indvars.iv57
  %16 = load float, ptr %15, align 4
  %17 = load float, ptr %3, align 4
  %18 = fdiv float %16, %17
  %19 = getelementptr inbounds [3 x float], ptr %2, i64 %indvars.iv67, i64 %indvars.iv57
  store float %18, ptr %19, align 4
  br label %20

20:                                               ; preds = %14, %.lr.ph.split.us.us.us.split.us
  %indvars.iv.next58 = add nuw nsw i64 %indvars.iv57, 1
  %exitcond61.not = icmp eq i64 %indvars.iv.next58, %wide.trip.count60
  br i1 %exitcond61.not, label %._crit_edge.split.us.us.us, label %.lr.ph.split.us.us.us.split.us, !llvm.loop !5

.lr.ph.split.us.us.us.split:                      ; preds = %.preheader.us.us, %41
  %indvars.iv62 = phi i64 [ %indvars.iv.next63, %41 ], [ 0, %.preheader.us.us ]
  %21 = getelementptr inbounds [3 x float], ptr %1, i64 2, i64 %indvars.iv62
  %22 = load float, ptr %21, align 4
  %23 = fcmp oeq float %22, 0.000000e+00
  br i1 %23, label %24, label %41

24:                                               ; preds = %.lr.ph.split.us.us.us.split
  %25 = icmp eq i64 %indvars.iv62, 0
  br i1 %25, label %26, label %35

26:                                               ; preds = %24
  %27 = load float, ptr %10, align 4
  %28 = fcmp une float %27, 0.000000e+00
  br i1 %28, label %29, label %35

29:                                               ; preds = %26
  %30 = load float, ptr %7, align 4
  %31 = fcmp une float %30, 0.000000e+00
  br i1 %31, label %41, label %32

32:                                               ; preds = %29
  %33 = load float, ptr %8, align 4
  %34 = fcmp une float %33, 0.000000e+00
  br i1 %34, label %41, label %35

35:                                               ; preds = %32, %26, %24
  %36 = getelementptr inbounds [3 x float], ptr %3, i64 2, i64 %indvars.iv62
  %37 = load float, ptr %36, align 4
  %38 = load float, ptr %3, align 4
  %39 = fdiv float %37, %38
  %40 = getelementptr inbounds [3 x float], ptr %2, i64 2, i64 %indvars.iv62
  store float %39, ptr %40, align 4
  br label %41

41:                                               ; preds = %35, %32, %29, %.lr.ph.split.us.us.us.split
  %indvars.iv.next63 = add nuw nsw i64 %indvars.iv62, 1
  %exitcond66.not = icmp eq i64 %indvars.iv.next63, %wide.trip.count65
  br i1 %exitcond66.not, label %._crit_edge.split.us.us.us, label %.lr.ph.split.us.us.us.split, !llvm.loop !5

._crit_edge.split.us.us.us:                       ; preds = %20, %41
  %indvars.iv.next68 = add nuw nsw i64 %indvars.iv67, 1
  %exitcond70.not = icmp eq i64 %indvars.iv.next68, 3
  br i1 %exitcond70.not, label %.split42.us, label %.preheader.us.us, !llvm.loop !7

.preheader.us:                                    ; preds = %.split.us, %._crit_edge.split.us40
  %indvars.iv53 = phi i64 [ %indvars.iv.next54, %._crit_edge.split.us40 ], [ 1, %.split.us ]
  %42 = icmp eq i64 %indvars.iv53, 2
  %43 = getelementptr inbounds [3 x float], ptr %1, i64 %indvars.iv53, i64 1
  br i1 %42, label %.lr.ph.split.split.us39, label %.lr.ph.split.split.us.us

.lr.ph.split.split.us39:                          ; preds = %.preheader.us, %64
  %indvars.iv48 = phi i64 [ %indvars.iv.next49, %64 ], [ 0, %.preheader.us ]
  %44 = getelementptr inbounds [3 x float], ptr %1, i64 2, i64 %indvars.iv48
  %45 = load float, ptr %44, align 4
  %46 = fcmp oeq float %45, 0.000000e+00
  br i1 %46, label %47, label %64

47:                                               ; preds = %.lr.ph.split.split.us39
  %48 = icmp eq i64 %indvars.iv48, 0
  br i1 %48, label %49, label %58

49:                                               ; preds = %47
  %50 = load float, ptr %43, align 4
  %51 = fcmp une float %50, 0.000000e+00
  br i1 %51, label %52, label %58

52:                                               ; preds = %49
  %53 = load float, ptr %7, align 4
  %54 = fcmp une float %53, 0.000000e+00
  br i1 %54, label %64, label %55

55:                                               ; preds = %52
  %56 = load float, ptr %8, align 4
  %57 = fcmp une float %56, 0.000000e+00
  br i1 %57, label %64, label %58

58:                                               ; preds = %55, %49, %47
  %59 = load float, ptr %3, align 4
  %60 = getelementptr inbounds [3 x float], ptr %2, i64 2, i64 %indvars.iv48
  %61 = load float, ptr %60, align 4
  %62 = fmul float %59, %61
  %63 = getelementptr inbounds [3 x float], ptr %3, i64 2, i64 %indvars.iv48
  store float %62, ptr %63, align 4
  br label %64

64:                                               ; preds = %58, %55, %52, %.lr.ph.split.split.us39
  %indvars.iv.next49 = add nuw nsw i64 %indvars.iv48, 1
  %exitcond52.not = icmp eq i64 %indvars.iv.next49, %wide.trip.count65
  br i1 %exitcond52.not, label %._crit_edge.split.us40, label %.lr.ph.split.split.us39, !llvm.loop !5

._crit_edge.split.us40:                           ; preds = %74, %64
  %indvars.iv.next54 = add nuw nsw i64 %indvars.iv53, 1
  %exitcond56.not = icmp eq i64 %indvars.iv.next54, 3
  br i1 %exitcond56.not, label %.split42.us, label %.preheader.us, !llvm.loop !7

.lr.ph.split.split.us.us:                         ; preds = %.preheader.us, %74
  %indvars.iv = phi i64 [ %indvars.iv.next, %74 ], [ 0, %.preheader.us ]
  %65 = getelementptr inbounds [3 x float], ptr %1, i64 %indvars.iv53, i64 %indvars.iv
  %66 = load float, ptr %65, align 4
  %67 = fcmp oeq float %66, 0.000000e+00
  br i1 %67, label %68, label %74

68:                                               ; preds = %.lr.ph.split.split.us.us
  %69 = load float, ptr %3, align 4
  %70 = getelementptr inbounds [3 x float], ptr %2, i64 %indvars.iv53, i64 %indvars.iv
  %71 = load float, ptr %70, align 4
  %72 = fmul float %69, %71
  %73 = getelementptr inbounds [3 x float], ptr %3, i64 %indvars.iv53, i64 %indvars.iv
  store float %72, ptr %73, align 4
  br label %74

74:                                               ; preds = %68, %.lr.ph.split.split.us.us
  %indvars.iv.next = add nuw nsw i64 %indvars.iv, 1
  %exitcond.not = icmp eq i64 %indvars.iv.next, %wide.trip.count60
  br i1 %exitcond.not, label %._crit_edge.split.us40, label %.lr.ph.split.split.us.us, !llvm.loop !5

.split42.us:                                      ; preds = %._crit_edge.split.us40, %._crit_edge.split.us.us.us, %5
  ret void
}